target datalayout = "e-m:e-p270:32:32-p271:32:32-p272:64:64-i64:64-i128:128-f80:128-n8:16:32:64-S128"
target triple = "x86_64-pc-linux-gnu"

%"class.pxrInternal_v0_24__pxrReserved__::GfMatrix4d" = type { %"class.pxrInternal_v0_24__pxrReserved__::GfMatrixData" }
%"class.pxrInternal_v0_24__pxrReserved__::GfMatrixData" = type { [16 x double] }
%"class.pxrInternal_v0_24__pxrReserved__::GfBBox3d" = type <{ %"class.pxrInternal_v0_24__pxrReserved__::GfRange3d", %"class.pxrInternal_v0_24__pxrReserved__::GfMatrix4d", %"class.pxrInternal_v0_24__pxrReserved__::GfMatrix4d", i8, i8, [6 x i8] }>
%"class.pxrInternal_v0_24__pxrReserved__::GfRange3d" = type { %"class.pxrInternal_v0_24__pxrReserved__::GfVec3d", %"class.pxrInternal_v0_24__pxrReserved__::GfVec3d" }
%"class.pxrInternal_v0_24__pxrReserved__::GfVec3d" = type { [3 x double] }

@.str.2 = private unnamed_addr constant [3 x i8] c"[(\00", align 1
@.str.3 = private unnamed_addr constant [4 x i8] c") (\00", align 1
@.str.4 = private unnamed_addr constant [3 x i8] c") \00", align 1
@.str.5 = private unnamed_addr constant [5 x i8] c"true\00", align 1
@.str.6 = private unnamed_addr constant [6 x i8] c"false\00", align 1

; Function Attrs: mustprogress nounwind uwtable
define linkonce_odr noundef zeroext i1 @_ZNK32pxrInternal_v0_24__pxrReserved__8GfBBox3d21HasZeroAreaPrimitivesEv(ptr noundef nonnull align 8 dereferenceable(306) %0) #2 comdat align 2 {
  %2 = alloca ptr, align 8
  store ptr %0, ptr %2, align 8
  %3 = load ptr, ptr %2, align 8
  %4 = getelementptr inbounds nuw %"class.pxrInternal_v0_24__pxrReserved__::GfBBox3d", ptr %3, i32 0, i32 4
  %5 = load i8, ptr %4, align 1
  %6 = trunc i8 %5 to i1
  ret i1 %6
}

; Function Attrs: mustprogress nounwind uwtable
define linkonce_odr void @_ZN32pxrInternal_v0_24__pxrReserved__17Gf_OstreamHelperPINS_10GfMatrix4dEEET_S2_(ptr dead_on_unwind noalias writable sret(%"class.pxrInternal_v0_24__pxrReserved__::GfMatrix4d") align 8 %0, ptr noundef byval(%"class.pxrInternal_v0_24__pxrReserved__::GfMatrix4d") align 8 %1) #2 comdat {
  call void @llvm.memcpy.p0.p0.i64(ptr align 8 %0, ptr align 8 %1, i64 128, i1 false)
  ret void
}

; Function Attrs: mustprogress nounwind uwtable
define linkonce_odr noundef nonnull align 8 dereferenceable(128) ptr @_ZNK32pxrInternal_v0_24__pxrReserved__8GfBBox3d9GetMatrixEv(ptr noundef nonnull align 8 dereferenceable(306) %0) #2 comdat align 2 {
  %2 = alloca ptr, align 8
  store ptr %0, ptr %2, align 8
  %3 = load ptr, ptr %2, align 8
  %4 = getelementptr inbounds nuw %"class.pxrInternal_v0_24__pxrReserved__::GfBBox3d", ptr %3, i32 0, i32 1
  ret ptr %4
}

; Function Attrs: mustprogress nounwind uwtable
define linkonce_odr void @_ZN32pxrInternal_v0_24__pxrReserved__17Gf_OstreamHelperPINS_9GfRange3dEEET_S2_(ptr dead_on_unwind noalias writable sret(%"class.pxrInternal_v0_24__pxrReserved__::GfRange3d") align 8 %0, ptr noundef byval(%"class.pxrInternal_v0_24__pxrReserved__::GfRange3d") align 8 %1) #2 comdat {
  call void @llvm.memcpy.p0.p0.i64(ptr align 8 %0, ptr align 8 %1, i64 48, i1 false)
  ret void
}

; Function Attrs: mustprogress nounwind uwtable
define linkonce_odr noundef nonnull align 8 dereferenceable(48) ptr @_ZNK32pxrInternal_v0_24__pxrReserved__8GfBBox3d8GetRangeEv(ptr noundef nonnull align 8 dereferenceable(306) %0) #2 comdat align 2 {
  %2 = alloca ptr, align 8
  store ptr %0, ptr %2, align 8
  %3 = load ptr, ptr %2, align 8
  %4 = getelementptr inbounds nuw %"class.pxrInternal_v0_24__pxrReserved__::GfBBox3d", ptr %3, i32 0, i32 0
  ret ptr %4
}

; Function Attrs: mustprogress uwtable
define noundef nonnull align 8 dereferenceable(8) ptr @_ZN32pxrInternal_v0_24__pxrReserved__lsERSoRKNS_8GfBBox3dE(ptr noundef nonnull align 8 dereferenceable(8) %0, ptr noundef nonnull align 8 dereferenceable(306) %1) #0 {
  %3 = alloca ptr, align 8
  %4 = alloca ptr, align 8
  %5 = alloca %"class.pxrInternal_v0_24__pxrReserved__::GfRange3d", align 8
  %6 = alloca %"class.pxrInternal_v0_24__pxrReserved__::GfRange3d", align 8
  %7 = alloca %"class.pxrInternal_v0_24__pxrReserved__::GfMatrix4d", align 8
  %8 = alloca %"class.pxrInternal_v0_24__pxrReserved__::GfMatrix4d", align 8
  store ptr %0, ptr %3, align 8
  store ptr %1, ptr %4, align 8
  %9 = load ptr, ptr %3, align 8
  %10 = call noundef nonnull align 8 dereferenceable(8) ptr @_ZStlsISt11char_traitsIcEERSt13basic_ostreamIcT_ES5_PKc(ptr noundef nonnull align 8 dereferenceable(8) %9, ptr noundef @.str.2)
  %11 = load ptr, ptr %4, align 8
  %12 = call noundef nonnull align 8 dereferenceable(48) ptr @_ZNK32pxrInternal_v0_24__pxrReserved__8GfBBox3d8GetRangeEv(ptr noundef nonnull align 8 dereferenceable(306) %11)
  call void @llvm.memcpy.p0.p0.i64(ptr align 8 %6, ptr align 8 %12, i64 48, i1 false)
  call void @_ZN32pxrInternal_v0_24__pxrReserved__17Gf_OstreamHelperPINS_9GfRange3dEEET_S2_(ptr dead_on_unwind writable sret(%"class.pxrInternal_v0_24__pxrReserved__::GfRange3d") align 8 %5, ptr noundef byval(%"class.pxrInternal_v0_24__pxrReserved__::GfRange3d") align 8 %6)
  %13 = call noundef nonnull align 8 dereferenceable(8) ptr @_ZN32pxrInternal_v0_24__pxrReserved__lsERSoRKNS_9GfRange3dE(ptr noundef nonnull align 8 dereferenceable(8) %10, ptr noundef nonnull align 8 dereferenceable(48) %5)
  %14 = call noundef nonnull align 8 dereferenceable(8) ptr @_ZStlsISt11char_traitsIcEERSt13basic_ostreamIcT_ES5_PKc(ptr noundef nonnull align 8 dereferenceable(8) %13, ptr noundef @.str.3)
  %15 = load ptr, ptr %4, align 8
  %16 = call noundef nonnull align 8 dereferenceable(128) ptr @_ZNK32pxrInternal_v0_24__pxrReserved__8GfBBox3d9GetMatrixEv(ptr noundef nonnull align 8 dereferenceable(306) %15)
  call void @llvm.memcpy.p0.p0.i64(ptr align 8 %8, ptr align 8 %16, i64 128, i1 false)
  call void @_ZN32pxrInternal_v0_24__pxrReserved__17Gf_OstreamHelperPINS_10GfMatrix4dEEET_S2_(ptr dead_on_unwind writable sret(%"class.pxrInternal_v0_24__pxrReserved__::GfMatrix4d") align 8 %7, ptr noundef byval(%"class.pxrInternal_v0_24__pxrReserved__::GfMatrix4d") align 8 %8)
  %17 = call noundef nonnull align 8 dereferenceable(8) ptr @_ZN32pxrInternal_v0_24__pxrReserved__lsERSoRKNS_10GfMatrix4dE(ptr noundef nonnull align 8 dereferenceable(8) %14, ptr noundef nonnull align 8 dereferenceable(128) %7)
  %18 = call noundef nonnull align 8 dereferenceable(8) ptr @_ZStlsISt11char_traitsIcEERSt13basic_ostreamIcT_ES5_PKc(ptr noundef nonnull align 8 dereferenceable(8) %17, ptr noundef @.str.4)
  %19 = load ptr, ptr %4, align 8
  %20 = call noundef zeroext i1 @_ZNK32pxrInternal_v0_24__pxrReserved__8GfBBox3d21HasZeroAreaPrimitivesEv(ptr noundef nonnull align 8 dereferenceable(306) %19)
  %21 = select i1 %20, ptr @.str.5, ptr @.str.6
  %22 = call noundef nonnull align 8 dereferenceable(8) ptr @_ZStlsISt11char_traitsIcEERSt13basic_ostreamIcT_ES5_PKc(ptr noundef nonnull align 8 dereferenceable(8) %18, ptr noundef %21)
  %23 = call noundef nonnull align 8 dereferenceable(8) ptr @_ZStlsISt11char_traitsIcEERSt13basic_ostreamIcT_ES5_c(ptr noundef nonnull align 8 dereferenceable(8) %22, i8 noundef signext 93)
  ret ptr %23
}